; Function Attrs: mustprogress nofree norecurse nosync nounwind willreturn memory(argmem: write) uwtable
define internal range(i32 -24832, 1) i32 @get_no_padding(ptr noundef readnone %0, i64 noundef %1, ptr noundef writeonly %2) #6 {
  %4 = icmp eq ptr %0, null
  %5 = icmp eq ptr %2, null
  %or.cond = or i1 %4, %5
  br i1 %or.cond, label %7, label %6

6:                                                ; preds = %3
  store i64 %1, ptr %2, align 8, !tbaa !37
  br label %7

7:                                                ; preds = %3, %6
  %.0 = phi i32 [ 0, %6 ], [ -24832, %3 ]
  ret i32 %.0
}